target datalayout = "e-m:e-p270:32:32-p271:32:32-p272:64:64-i64:64-i128:128-f80:128-n8:16:32:64-S128"
target triple = "x86_64-pc-linux-gnu"

%struct.H5C_class_t = type { i32, ptr, i32, i32, ptr, ptr, ptr, ptr, ptr, ptr, ptr, ptr, ptr, ptr }
%struct.H5O_t = type { %struct.H5C_cache_entry_t, i64, i64, i8, i64, i8, i32, i8, i8, i64, i64, i64, i64, i32, i32, i64, i64, ptr, i64, i64, i64, i64, ptr, i8, ptr }
%struct.H5C_cache_entry_t = type { ptr, i64, i64, ptr, i8, ptr, i8, i8, i8, i8, i32, i8, i8, i8, i8, i8, i32, ptr, i32, i32, i32, i32, i32, i8, i8, ptr, ptr, ptr, ptr, ptr, ptr, i8, i32, i8, i64, ptr, i64, i64, i32, i8, i32, i32, i8, ptr, ptr, ptr }
%struct.H5O_chunk_t = type { i64, i64, i64, ptr, ptr }

@.str.1 = private unnamed_addr constant [102 x i8] c"generated/home/dtcxzyw/WorkSpace/Projects/compilers/llvm-opt-benchmark/bench/hdf5/hdf5/src/H5Ochunk.c\00", align 1
@H5E_OHDR_g = external global i64, align 8
@H5E_CANTPROTECT_g = external global i64, align 8
@.str.4 = private unnamed_addr constant [35 x i8] c"unable to load object header chunk\00", align 1
@H5AC_OHDR_CHK = external constant [1 x %struct.H5C_class_t], align 16
@H5E_CANTUNPROTECT_g = external global i64, align 8
@.str.10 = private unnamed_addr constant [38 x i8] c"unable to release object header chunk\00", align 1
@__func__.H5O__chunk_delete = private unnamed_addr constant [18 x i8] c"H5O__chunk_delete\00", align 1

; Function Attrs: nounwind uwtable
define i32 @H5O__chunk_delete(ptr noundef %0, ptr noundef %1, i32 noundef %2) #0 {
  %4 = alloca ptr, align 8
  %5 = alloca ptr, align 8
  %6 = alloca i32, align 4
  %7 = alloca ptr, align 8
  %8 = alloca i32, align 4
  %9 = alloca i32, align 4
  %10 = alloca i64, align 8
  %11 = alloca i8, align 1
  store ptr %0, ptr %4, align 8
  store ptr %1, ptr %5, align 8
  store i32 %2, ptr %6, align 4
  store ptr null, ptr %7, align 8
  store i32 1, ptr %8, align 4
  store i32 0, ptr %9, align 4
  store i64 -1, ptr %10, align 8
  store i8 0, ptr %11, align 1
  %12 = load ptr, ptr %5, align 8
  %13 = getelementptr inbounds %struct.H5O_t, ptr %12, i32 0, i32 0
  %14 = getelementptr inbounds %struct.H5C_cache_entry_t, ptr %13, i32 0, i32 1
  %15 = load i64, ptr %14, align 8
  call void @H5AC_tag(i64 noundef %15, ptr noundef %10)
  %16 = load ptr, ptr %4, align 8
  %17 = load ptr, ptr %5, align 8
  %18 = load i32, ptr %6, align 4
  %19 = call ptr @H5O__chunk_protect(ptr noundef %16, ptr noundef %17, i32 noundef %18)
  store ptr %19, ptr %7, align 8
  %20 = icmp eq ptr null, %19
  br i1 %20, label %21, label %36

21:                                               ; preds = %3
  br label %22

22:                                               ; preds = %21
  br label %23

23:                                               ; preds = %22
  br label %24

24:                                               ; preds = %23
  %25 = load i64, ptr @H5E_OHDR_g, align 8
  %26 = load i64, ptr @H5E_CANTPROTECT_g, align 8
  %27 = call i32 (ptr, ptr, i32, i64, i64, ptr, ...) @H5E_printf_stack(ptr noundef @.str.1, ptr noundef @__func__.H5O__chunk_delete, i32 noundef 358, i64 noundef %25, i64 noundef %26, ptr noundef @.str.4)
  br label %28

28:                                               ; preds = %24
  store i8 1, ptr %11, align 1
  %29 = load i8, ptr %11, align 1
  %30 = trunc i8 %29 to i1
  %31 = zext i1 %30 to i8
  store i8 %31, ptr %11, align 1
  br label %32

32:                                               ; preds = %28
  br label %33

33:                                               ; preds = %32
  store i32 -1, ptr %9, align 4
  br label %45

34:                                               ; No predecessors!
  br label %35

35:                                               ; preds = %34
  br label %36

36:                                               ; preds = %35, %3
  %37 = load ptr, ptr %5, align 8
  %38 = getelementptr inbounds %struct.H5O_t, ptr %37, i32 0, i32 3
  %39 = load i8, ptr %38, align 8
  %40 = trunc i8 %39 to i1
  br i1 %40, label %44, label %41

41:                                               ; preds = %36
  %42 = load i32, ptr %8, align 4
  %43 = or i32 %42, 258
  store i32 %43, ptr %8, align 4
  br label %44

44:                                               ; preds = %41, %36
  br label %45

45:                                               ; preds = %44, %33
  %46 = load ptr, ptr %7, align 8
  %47 = icmp ne ptr %46, null
  br i1 %47, label %48, label %75

48:                                               ; preds = %45
  %49 = load ptr, ptr %4, align 8
  %50 = load ptr, ptr %5, align 8
  %51 = getelementptr inbounds %struct.H5O_t, ptr %50, i32 0, i32 22
  %52 = load ptr, ptr %51, align 8
  %53 = load i32, ptr %6, align 4
  %54 = zext i32 %53 to i64
  %55 = getelementptr inbounds %struct.H5O_chunk_t, ptr %52, i64 %54
  %56 = getelementptr inbounds %struct.H5O_chunk_t, ptr %55, i32 0, i32 0
  %57 = load i64, ptr %56, align 8
  %58 = load ptr, ptr %7, align 8
  %59 = load i32, ptr %8, align 4
  %60 = call i32 @H5AC_unprotect(ptr noundef %49, ptr noundef @H5AC_OHDR_CHK, i64 noundef %57, ptr noundef %58, i32 noundef %59)
  %61 = icmp slt i32 %60, 0
  br i1 %61, label %62, label %75

62:                                               ; preds = %48
  br label %63

63:                                               ; preds = %62
  br label %64

64:                                               ; preds = %63
  br label %65

65:                                               ; preds = %64
  %66 = load i64, ptr @H5E_OHDR_g, align 8
  %67 = load i64, ptr @H5E_CANTUNPROTECT_g, align 8
  %68 = call i32 (ptr, ptr, i32, i64, i64, ptr, ...) @H5E_printf_stack(ptr noundef @.str.1, ptr noundef @__func__.H5O__chunk_delete, i32 noundef 367, i64 noundef %66, i64 noundef %67, ptr noundef @.str.10)
  br label %69

69:                                               ; preds = %65
  store i8 1, ptr %11, align 1
  %70 = load i8, ptr %11, align 1
  %71 = trunc i8 %70 to i1
  %72 = zext i1 %71 to i8
  store i8 %72, ptr %11, align 1
  br label %73

73:                                               ; preds = %69
  store i32 -1, ptr %9, align 4
  br label %74

74:                                               ; preds = %73
  br label %75

75:                                               ; preds = %74, %48, %45
  %76 = load i64, ptr %10, align 8
  call void @H5AC_tag(i64 noundef %76, ptr noundef null)
  %77 = load i32, ptr %9, align 4
  ret i32 %77
}