; Function Attrs: nounwind uwtable
define range(i32 -1, 1) i32 @H5O__chunk_delete(ptr noundef %0, ptr noundef %1, i32 noundef %2) local_unnamed_addr #0 {
  %4 = alloca i64, align 8
  store i64 -1, ptr %4, align 8
  %5 = getelementptr inbounds i8, ptr %1, i64 8
  %6 = load i64, ptr %5, align 8
  call void @H5AC_tag(i64 noundef %6, ptr noundef nonnull %4) #3
  %7 = call ptr @H5O__chunk_protect(ptr noundef %0, ptr noundef %1, i32 noundef %2)
  %8 = icmp eq ptr %7, null
  br i1 %8, label %.thread, label %12

.thread:                                          ; preds = %3
  %9 = load i64, ptr @H5E_OHDR_g, align 8
  %10 = load i64, ptr @H5E_CANTPROTECT_g, align 8
  %11 = call i32 (ptr, ptr, i32, i64, i64, ptr, ...) @H5E_printf_stack(ptr noundef nonnull @.str.1, ptr noundef nonnull @__func__.H5O__chunk_delete, i32 noundef 358, i64 noundef %9, i64 noundef %10, ptr noundef nonnull @.str.4) #3
  br label %27

12:                                               ; preds = %3
  %13 = getelementptr inbounds i8, ptr %1, i64 264
  %14 = load i8, ptr %13, align 8
  %15 = trunc i8 %14 to i1
  %spec.select = select i1 %15, i32 1, i32 259
  %16 = getelementptr inbounds i8, ptr %1, i64 392
  %17 = load ptr, ptr %16, align 8
  %18 = zext i32 %2 to i64
  %19 = getelementptr inbounds %struct.H5O_chunk_t, ptr %17, i64 %18
  %20 = load i64, ptr %19, align 8
  %21 = call i32 @H5AC_unprotect(ptr noundef %0, ptr noundef nonnull @H5AC_OHDR_CHK, i64 noundef %20, ptr noundef nonnull %7, i32 noundef %spec.select) #3
  %22 = icmp slt i32 %21, 0
  br i1 %22, label %23, label %27

23:                                               ; preds = %12
  %24 = load i64, ptr @H5E_OHDR_g, align 8
  %25 = load i64, ptr @H5E_CANTUNPROTECT_g, align 8
  %26 = call i32 (ptr, ptr, i32, i64, i64, ptr, ...) @H5E_printf_stack(ptr noundef nonnull @.str.1, ptr noundef nonnull @__func__.H5O__chunk_delete, i32 noundef 367, i64 noundef %24, i64 noundef %25, ptr noundef nonnull @.str.10) #3
  br label %27

27:                                               ; preds = %.thread, %23, %12
  %.1 = phi i32 [ -1, %23 ], [ 0, %12 ], [ -1, %.thread ]
  %28 = load i64, ptr %4, align 8
  call void @H5AC_tag(i64 noundef %28, ptr noundef null) #3
  ret i32 %.1
}